; Function Attrs: nounwind uwtable
define dso_local void @write_bin_error(ptr noundef %0, i32 noundef %1, ptr noundef %2, i32 noundef %3) local_unnamed_addr #0 {
  %.not = icmp eq ptr %2, null
  br i1 %.not, label %5, label %19

5:                                                ; preds = %4
  switch i32 %1, label %14 [
    i32 130, label %19
    i32 129, label %6
    i32 1, label %7
    i32 4, label %8
    i32 2, label %9
    i32 3, label %10
    i32 6, label %11
    i32 5, label %12
    i32 32, label %13
  ]

6:                                                ; preds = %5
  br label %19

7:                                                ; preds = %5
  br label %19

8:                                                ; preds = %5
  br label %19

9:                                                ; preds = %5
  br label %19

10:                                               ; preds = %5
  br label %19

11:                                               ; preds = %5
  br label %19

12:                                               ; preds = %5
  br label %19

13:                                               ; preds = %5
  br label %19

14:                                               ; preds = %5
  %15 = load ptr, ptr @stderr, align 8, !tbaa !58
  %16 = getelementptr inbounds nuw i8, ptr %0, i64 8
  %17 = load i32, ptr %16, align 8, !tbaa !37
  %18 = tail call i32 (ptr, ptr, ...) @fprintf(ptr noundef %15, ptr noundef nonnull @.str.16, i32 noundef %17, i32 noundef %1) #12
  br label %19

19:                                               ; preds = %5, %6, %7, %8, %9, %10, %11, %12, %13, %14, %4
  %.0 = phi ptr [ %2, %4 ], [ @.str.15, %14 ], [ @.str.14, %13 ], [ @.str.13, %12 ], [ @.str.12, %11 ], [ @.str.11, %10 ], [ @.str.10, %9 ], [ @.str.9, %8 ], [ @.str.8, %7 ], [ @.str.7, %6 ], [ @.str.6, %5 ]
  %20 = load i32, ptr getelementptr inbounds nuw (i8, ptr @settings, i64 32), align 8, !tbaa !57
  %21 = icmp sgt i32 %20, 1
  br i1 %21, label %22, label %27

22:                                               ; preds = %19
  %23 = load ptr, ptr @stderr, align 8, !tbaa !58
  %24 = getelementptr inbounds nuw i8, ptr %0, i64 8
  %25 = load i32, ptr %24, align 8, !tbaa !37
  %26 = tail call i32 (ptr, ptr, ...) @fprintf(ptr noundef %23, ptr noundef nonnull @.str.17, i32 noundef %25, ptr noundef nonnull %.0) #12
  br label %27

27:                                               ; preds = %22, %19
  %28 = tail call i64 @strlen(ptr noundef nonnull dereferenceable(1) %.0) #14
  %29 = trunc i32 %1 to i16
  %30 = trunc i64 %28 to i32
  tail call fastcc void @add_bin_header(ptr noundef %0, i16 noundef zeroext %29, i8 noundef zeroext 0, i16 noundef zeroext 0, i32 noundef %30)
  %.not20 = icmp eq i64 %28, 0
  br i1 %.not20, label %34, label %31

31:                                               ; preds = %27
  %32 = getelementptr inbounds nuw i8, ptr %0, i64 208
  %33 = load ptr, ptr %32, align 8, !tbaa !60
  tail call void @resp_add_iov(ptr noundef %33, ptr noundef nonnull %.0, i32 noundef %30) #11
  br label %34

34:                                               ; preds = %31, %27
  %35 = icmp sgt i32 %3, 0
  br i1 %35, label %36, label %38

36:                                               ; preds = %34
  %37 = getelementptr inbounds nuw i8, ptr %0, i64 248
  store i32 %3, ptr %37, align 8, !tbaa !64
  br label %38

38:                                               ; preds = %34, %36
  %.sink = phi i32 [ 7, %36 ], [ 9, %34 ]
  tail call void @conn_set_state(ptr noundef %0, i32 noundef %.sink) #11
  ret void
}